target datalayout = "e-m:e-p270:32:32-p271:32:32-p272:64:64-i64:64-i128:128-f80:128-n8:16:32:64-S128"
target triple = "x86_64-pc-linux-gnu"

%struct.mz_zip_archive = type { i64, i64, i32, i32, i32, i32, i64, ptr, ptr, ptr, ptr, ptr, ptr, ptr, ptr, ptr }
%struct.mz_zip_internal_state_tag = type { %struct.mz_zip_array, %struct.mz_zip_array, %struct.mz_zip_array, i32, i32, i32, ptr, i64, ptr, i64, i64 }
%struct.mz_zip_array = type { ptr, i64, i64, i32 }

; Function Attrs: nounwind uwtable
define internal i64 @mz_zip_file_read_func(ptr noundef %0, i64 noundef %1, ptr noundef %2, i64 noundef %3) #0 {
  %5 = alloca i64, align 8
  %6 = alloca ptr, align 8
  %7 = alloca i64, align 8
  %8 = alloca ptr, align 8
  %9 = alloca i64, align 8
  %10 = alloca ptr, align 8
  %11 = alloca i64, align 8
  %12 = alloca i32, align 4
  store ptr %0, ptr %6, align 8
  store i64 %1, ptr %7, align 8
  store ptr %2, ptr %8, align 8
  store i64 %3, ptr %9, align 8
  call void @llvm.lifetime.start.p0(i64 8, ptr %10) #13
  %13 = load ptr, ptr %6, align 8
  store ptr %13, ptr %10, align 8
  call void @llvm.lifetime.start.p0(i64 8, ptr %11) #13
  %14 = load ptr, ptr %10, align 8
  %15 = getelementptr inbounds nuw %struct.mz_zip_archive, ptr %14, i32 0, i32 15
  %16 = load ptr, ptr %15, align 8
  %17 = getelementptr inbounds nuw %struct.mz_zip_internal_state_tag, ptr %16, i32 0, i32 6
  %18 = load ptr, ptr %17, align 8
  %19 = call i64 @ftello(ptr noundef %18)
  store i64 %19, ptr %11, align 8
  %20 = load ptr, ptr %10, align 8
  %21 = getelementptr inbounds nuw %struct.mz_zip_archive, ptr %20, i32 0, i32 15
  %22 = load ptr, ptr %21, align 8
  %23 = getelementptr inbounds nuw %struct.mz_zip_internal_state_tag, ptr %22, i32 0, i32 7
  %24 = load i64, ptr %23, align 8
  %25 = load i64, ptr %7, align 8
  %26 = add i64 %25, %24
  store i64 %26, ptr %7, align 8
  %27 = load i64, ptr %7, align 8
  %28 = icmp slt i64 %27, 0
  br i1 %28, label %42, label %29

29:                                               ; preds = %4
  %30 = load i64, ptr %11, align 8
  %31 = load i64, ptr %7, align 8
  %32 = icmp ne i64 %30, %31
  br i1 %32, label %33, label %43

33:                                               ; preds = %29
  %34 = load ptr, ptr %10, align 8
  %35 = getelementptr inbounds nuw %struct.mz_zip_archive, ptr %34, i32 0, i32 15
  %36 = load ptr, ptr %35, align 8
  %37 = getelementptr inbounds nuw %struct.mz_zip_internal_state_tag, ptr %36, i32 0, i32 6
  %38 = load ptr, ptr %37, align 8
  %39 = load i64, ptr %7, align 8
  %40 = call i32 @fseeko(ptr noundef %38, i64 noundef %39, i32 noundef 0)
  %41 = icmp ne i32 %40, 0
  br i1 %41, label %42, label %43

42:                                               ; preds = %33, %4
  store i64 0, ptr %5, align 8
  store i32 1, ptr %12, align 4
  br label %52

43:                                               ; preds = %33, %29
  %44 = load ptr, ptr %8, align 8
  %45 = load i64, ptr %9, align 8
  %46 = load ptr, ptr %10, align 8
  %47 = getelementptr inbounds nuw %struct.mz_zip_archive, ptr %46, i32 0, i32 15
  %48 = load ptr, ptr %47, align 8
  %49 = getelementptr inbounds nuw %struct.mz_zip_internal_state_tag, ptr %48, i32 0, i32 6
  %50 = load ptr, ptr %49, align 8
  %51 = call i64 @fread(ptr noundef %44, i64 noundef 1, i64 noundef %45, ptr noundef %50)
  store i64 %51, ptr %5, align 8
  store i32 1, ptr %12, align 4
  br label %52

52:                                               ; preds = %43, %42
  call void @llvm.lifetime.end.p0(i64 8, ptr %11) #13
  call void @llvm.lifetime.end.p0(i64 8, ptr %10) #13
  %53 = load i64, ptr %5, align 8
  ret i64 %53
}