; Function Attrs: nofree nounwind uwtable
define internal noundef i64 @mz_zip_file_read_func(ptr noundef readonly captures(none) %0, i64 noundef %1, ptr noundef captures(none) %2, i64 noundef %3) #19 {
  %5 = getelementptr inbounds nuw i8, ptr %0, i64 104
  %6 = load ptr, ptr %5, align 8
  %7 = getelementptr inbounds nuw i8, ptr %6, i64 112
  %8 = load ptr, ptr %7, align 8
  %9 = tail call i64 @ftello(ptr noundef %8)
  %10 = load ptr, ptr %5, align 8
  %11 = getelementptr inbounds nuw i8, ptr %10, i64 120
  %12 = load i64, ptr %11, align 8
  %13 = add i64 %12, %1
  %14 = icmp slt i64 %13, 0
  br i1 %14, label %25, label %15

15:                                               ; preds = %4
  %.not = icmp eq i64 %9, %13
  br i1 %.not, label %20, label %16

16:                                               ; preds = %15
  %17 = getelementptr inbounds nuw i8, ptr %10, i64 112
  %18 = load ptr, ptr %17, align 8
  %19 = tail call i32 @fseeko(ptr noundef %18, i64 noundef %13, i32 noundef 0)
  %.not13 = icmp eq i32 %19, 0
  br i1 %.not13, label %._crit_edge, label %25

._crit_edge:                                      ; preds = %16
  %.pre = load ptr, ptr %5, align 8
  br label %20

20:                                               ; preds = %._crit_edge, %15
  %21 = phi ptr [ %.pre, %._crit_edge ], [ %10, %15 ]
  %22 = getelementptr inbounds nuw i8, ptr %21, i64 112
  %23 = load ptr, ptr %22, align 8
  %24 = tail call i64 @fread(ptr noundef %2, i64 noundef 1, i64 noundef %3, ptr noundef %23)
  br label %25

25:                                               ; preds = %4, %16, %20
  %.0 = phi i64 [ %24, %20 ], [ 0, %16 ], [ 0, %4 ]
  ret i64 %.0
}